; Function Attrs: nounwind sspstrong uwtable
define internal void @wkmap_compact(ptr noundef readonly captures(none) %0) #0 {
  %2 = alloca ptr, align 8
  %3 = load ptr, ptr %0, align 8, !tbaa !30
  %.not = icmp eq ptr %3, null
  br i1 %.not, label %10, label %4

4:                                                ; preds = %1
  call void @llvm.lifetime.start.p0(i64 8, ptr nonnull %2) #10
  store ptr null, ptr %2, align 8, !tbaa !41
  %5 = ptrtoint ptr %2 to i64
  %6 = call i32 @rb_st_foreach_with_replace(ptr noundef nonnull %3, ptr noundef nonnull @wkmap_compact_table_i, ptr noundef nonnull @wkmap_compact_table_replace, i64 noundef %5) #10
  %7 = load ptr, ptr %2, align 8, !tbaa !41
  %.not3 = icmp eq ptr %7, null
  br i1 %.not3, label %9, label %8

8:                                                ; preds = %4
  call void @ruby_xfree(ptr noundef nonnull %7) #10
  br label %9

9:                                                ; preds = %8, %4
  call void @llvm.lifetime.end.p0(i64 8, ptr nonnull %2) #10
  br label %10

10:                                               ; preds = %9, %1
  ret void
}